target datalayout = "e-m:e-p270:32:32-p271:32:32-p272:64:64-i64:64-i128:128-f80:128-n8:16:32:64-S128"
target triple = "x86_64-pc-linux-gnu"

%struct.onas_context = type <{ ptr, ptr, i32, i32, i32, i32, i64, i8, i8, i8, i64, i64, i32, i32, i32, i32, i64, i32 }>
%struct.optstruct = type { ptr, ptr, ptr, i64, i32, i32, i32, i32, ptr, ptr, ptr }

@ddd_pid = external global i64, align 8
@.str = private unnamed_addr constant [55 x i8] c"ClamFanotif: unable to start clamonacc. (bad context)\0A\00", align 1
@onas_fan_fd = internal global i32 0, align 4
@.str.1 = private unnamed_addr constant [19 x i8] c"OnAccessPrevention\00", align 1
@.str.2 = private unnamed_addr constant [18 x i8] c"OnAccessMountPath\00", align 1
@.str.3 = private unnamed_addr constant [99 x i8] c"ClamFanotif: kernel-level blocking feature enabled ... preventing malicious files access attempts\0A\00", align 1
@.str.4 = private unnamed_addr constant [57 x i8] c"ClamFanotif: kernel-level blocking feature disabled ...\0A\00", align 1
@.str.5 = private unnamed_addr constant [62 x i8] c"ClamFanotif: feature not available when watching mounts ... \0A\00", align 1
@.str.6 = private unnamed_addr constant [19 x i8] c"TemporaryDirectory\00", align 1
@.str.7 = private unnamed_addr constant [44 x i8] c"ClamFanotif: can't include mountpoint '%s'\0A\00", align 1
@.str.8 = private unnamed_addr constant [56 x i8] c"ClamFanotif: recursively watching the mount point '%s'\0A\00", align 1
@.str.9 = private unnamed_addr constant [19 x i8] c"OnAccessDisableDDD\00", align 1
@.str.10 = private unnamed_addr constant [20 x i8] c"OnAccessIncludePath\00", align 1
@.str.11 = private unnamed_addr constant [37 x i8] c"ClamFanotif: Not watching path '%s'\0A\00", align 1
@.str.12 = private unnamed_addr constant [85 x i8] c"ClamFanotif: ClamOnAcc should not watch the directory clamd is using for temp files\0A\00", align 1
@.str.13 = private unnamed_addr constant [90 x i8] c"ClamFanotif: Consider setting TemporaryDirectory in clamd.conf to a different directory.\0A\00", align 1
@.str.14 = private unnamed_addr constant [38 x i8] c"ClamFanotif: can't include path '%s'\0A\00", align 1
@.str.15 = private unnamed_addr constant [56 x i8] c"ClamFanotif: watching directory '%s' (non-recursively)\0A\00", align 1
@.str.16 = private unnamed_addr constant [72 x i8] c"ClamFanotif: please specify at least one path with OnAccessIncludePath\0A\00", align 1
@.str.17 = private unnamed_addr constant [20 x i8] c"OnAccessMaxFileSize\00", align 1
@.str.18 = private unnamed_addr constant [49 x i8] c"ClamFanotif: max file size limited to %lu bytes\0A\00", align 1
@.str.19 = private unnamed_addr constant [39 x i8] c"ClamFanotif: file size limit disabled\0A\00", align 1

; Function Attrs: nounwind uwtable
define dso_local i32 @onas_setup_fanotif(ptr noundef %0) #0 {
  %2 = alloca i32, align 4
  %3 = alloca ptr, align 8
  %4 = alloca ptr, align 8
  %5 = alloca i64, align 8
  %6 = alloca ptr, align 8
  %7 = alloca ptr, align 8
  store ptr %0, ptr %3, align 8
  store i64 134217728, ptr %5, align 8
  store i64 0, ptr @ddd_pid, align 8
  %8 = load ptr, ptr %3, align 8
  %9 = icmp ne ptr %8, null
  br i1 %9, label %10, label %14

10:                                               ; preds = %1
  %11 = load ptr, ptr %3, align 8
  %12 = load ptr, ptr %11, align 8
  %13 = icmp ne ptr %12, null
  br i1 %13, label %16, label %14

14:                                               ; preds = %10, %1
  %15 = call i32 (i32, ptr, ...) @logg(i32 noundef 5, ptr noundef @.str)
  store i32 3, ptr %2, align 4
  br label %237

16:                                               ; preds = %10
  %17 = load ptr, ptr %3, align 8
  %18 = load ptr, ptr %17, align 8
  %19 = getelementptr inbounds %struct.onas_context, ptr %18, i32 0, i32 5
  %20 = load i32, ptr %19, align 1
  store i32 %20, ptr @onas_fan_fd, align 4
  %21 = load i64, ptr %5, align 8
  %22 = load ptr, ptr %3, align 8
  %23 = load ptr, ptr %22, align 8
  %24 = getelementptr inbounds %struct.onas_context, ptr %23, i32 0, i32 6
  store i64 %21, ptr %24, align 1
  %25 = load ptr, ptr %3, align 8
  %26 = load ptr, ptr %25, align 8
  %27 = getelementptr inbounds %struct.onas_context, ptr %26, i32 0, i32 1
  %28 = load ptr, ptr %27, align 1
  %29 = call ptr @optget(ptr noundef %28, ptr noundef @.str.1)
  %30 = getelementptr inbounds %struct.optstruct, ptr %29, i32 0, i32 4
  %31 = load i32, ptr %30, align 8
  %32 = icmp ne i32 %31, 0
  br i1 %32, label %33, label %49

33:                                               ; preds = %16
  %34 = load ptr, ptr %3, align 8
  %35 = load ptr, ptr %34, align 8
  %36 = getelementptr inbounds %struct.onas_context, ptr %35, i32 0, i32 1
  %37 = load ptr, ptr %36, align 1
  %38 = call ptr @optget(ptr noundef %37, ptr noundef @.str.2)
  %39 = getelementptr inbounds %struct.optstruct, ptr %38, i32 0, i32 4
  %40 = load i32, ptr %39, align 8
  %41 = icmp ne i32 %40, 0
  br i1 %41, label %49, label %42

42:                                               ; preds = %33
  %43 = call i32 (i32, ptr, ...) @logg(i32 noundef 2, ptr noundef @.str.3)
  %44 = load ptr, ptr %3, align 8
  %45 = load ptr, ptr %44, align 8
  %46 = getelementptr inbounds %struct.onas_context, ptr %45, i32 0, i32 6
  %47 = load i64, ptr %46, align 1
  %48 = or i64 %47, 196608
  store i64 %48, ptr %46, align 1
  br label %76

49:                                               ; preds = %33, %16
  %50 = call i32 (i32, ptr, ...) @logg(i32 noundef 2, ptr noundef @.str.4)
  %51 = load ptr, ptr %3, align 8
  %52 = load ptr, ptr %51, align 8
  %53 = getelementptr inbounds %struct.onas_context, ptr %52, i32 0, i32 1
  %54 = load ptr, ptr %53, align 1
  %55 = call ptr @optget(ptr noundef %54, ptr noundef @.str.1)
  %56 = getelementptr inbounds %struct.optstruct, ptr %55, i32 0, i32 4
  %57 = load i32, ptr %56, align 8
  %58 = icmp ne i32 %57, 0
  br i1 %58, label %59, label %70

59:                                               ; preds = %49
  %60 = load ptr, ptr %3, align 8
  %61 = load ptr, ptr %60, align 8
  %62 = getelementptr inbounds %struct.onas_context, ptr %61, i32 0, i32 1
  %63 = load ptr, ptr %62, align 1
  %64 = call ptr @optget(ptr noundef %63, ptr noundef @.str.2)
  %65 = getelementptr inbounds %struct.optstruct, ptr %64, i32 0, i32 4
  %66 = load i32, ptr %65, align 8
  %67 = icmp ne i32 %66, 0
  br i1 %67, label %68, label %70

68:                                               ; preds = %59
  %69 = call i32 (i32, ptr, ...) @logg(i32 noundef 2, ptr noundef @.str.5)
  br label %70

70:                                               ; preds = %68, %59, %49
  %71 = load ptr, ptr %3, align 8
  %72 = load ptr, ptr %71, align 8
  %73 = getelementptr inbounds %struct.onas_context, ptr %72, i32 0, i32 6
  %74 = load i64, ptr %73, align 1
  %75 = or i64 %74, 33
  store i64 %75, ptr %73, align 1
  br label %76

76:                                               ; preds = %70, %42
  %77 = load ptr, ptr %3, align 8
  %78 = load ptr, ptr %77, align 8
  %79 = getelementptr inbounds %struct.onas_context, ptr %78, i32 0, i32 1
  %80 = load ptr, ptr %79, align 1
  %81 = call ptr @optget(ptr noundef %80, ptr noundef @.str.6)
  store ptr %81, ptr %6, align 8
  %82 = load ptr, ptr %6, align 8
  %83 = getelementptr inbounds %struct.optstruct, ptr %82, i32 0, i32 4
  %84 = load i32, ptr %83, align 8
  %85 = icmp ne i32 %84, 0
  br i1 %85, label %86, label %90

86:                                               ; preds = %76
  %87 = load ptr, ptr %6, align 8
  %88 = getelementptr inbounds %struct.optstruct, ptr %87, i32 0, i32 2
  %89 = load ptr, ptr %88, align 8
  store ptr %89, ptr %7, align 8
  br label %92

90:                                               ; preds = %76
  %91 = call ptr @cli_gettmpdir()
  store ptr %91, ptr %7, align 8
  br label %92

92:                                               ; preds = %90, %86
  %93 = load ptr, ptr %3, align 8
  %94 = load ptr, ptr %93, align 8
  %95 = getelementptr inbounds %struct.onas_context, ptr %94, i32 0, i32 1
  %96 = load ptr, ptr %95, align 1
  %97 = call ptr @optget(ptr noundef %96, ptr noundef @.str.2)
  store ptr %97, ptr %4, align 8
  %98 = getelementptr inbounds %struct.optstruct, ptr %97, i32 0, i32 4
  %99 = load i32, ptr %98, align 8
  %100 = icmp ne i32 %99, 0
  br i1 %100, label %101, label %135

101:                                              ; preds = %92
  br label %102

102:                                              ; preds = %130, %101
  %103 = load ptr, ptr %4, align 8
  %104 = icmp ne ptr %103, null
  br i1 %104, label %105, label %134

105:                                              ; preds = %102
  %106 = load i32, ptr @onas_fan_fd, align 4
  %107 = load ptr, ptr %3, align 8
  %108 = load ptr, ptr %107, align 8
  %109 = getelementptr inbounds %struct.onas_context, ptr %108, i32 0, i32 6
  %110 = load i64, ptr %109, align 1
  %111 = load ptr, ptr %3, align 8
  %112 = load ptr, ptr %111, align 8
  %113 = getelementptr inbounds %struct.onas_context, ptr %112, i32 0, i32 5
  %114 = load i32, ptr %113, align 1
  %115 = load ptr, ptr %4, align 8
  %116 = getelementptr inbounds %struct.optstruct, ptr %115, i32 0, i32 2
  %117 = load ptr, ptr %116, align 8
  %118 = call i32 @fanotify_mark(i32 noundef %106, i32 noundef 17, i64 noundef %110, i32 noundef %114, ptr noundef %117) #8
  %119 = icmp ne i32 %118, 0
  br i1 %119, label %120, label %125

120:                                              ; preds = %105
  %121 = load ptr, ptr %4, align 8
  %122 = getelementptr inbounds %struct.optstruct, ptr %121, i32 0, i32 2
  %123 = load ptr, ptr %122, align 8
  %124 = call i32 (i32, ptr, ...) @logg(i32 noundef 5, ptr noundef @.str.7, ptr noundef %123)
  store i32 3, ptr %2, align 4
  br label %237

125:                                              ; preds = %105
  %126 = load ptr, ptr %4, align 8
  %127 = getelementptr inbounds %struct.optstruct, ptr %126, i32 0, i32 2
  %128 = load ptr, ptr %127, align 8
  %129 = call i32 (i32, ptr, ...) @logg(i32 noundef 2, ptr noundef @.str.8, ptr noundef %128)
  br label %130

130:                                              ; preds = %125
  %131 = load ptr, ptr %4, align 8
  %132 = getelementptr inbounds %struct.optstruct, ptr %131, i32 0, i32 8
  %133 = load ptr, ptr %132, align 8
  store ptr %133, ptr %4, align 8
  br label %102

134:                                              ; preds = %102
  br label %212

135:                                              ; preds = %92
  %136 = load ptr, ptr %3, align 8
  %137 = load ptr, ptr %136, align 8
  %138 = getelementptr inbounds %struct.onas_context, ptr %137, i32 0, i32 1
  %139 = load ptr, ptr %138, align 1
  %140 = call ptr @optget(ptr noundef %139, ptr noundef @.str.9)
  %141 = getelementptr inbounds %struct.optstruct, ptr %140, i32 0, i32 4
  %142 = load i32, ptr %141, align 8
  %143 = icmp ne i32 %142, 0
  br i1 %143, label %148, label %144

144:                                              ; preds = %135
  %145 = load ptr, ptr %3, align 8
  %146 = load ptr, ptr %145, align 8
  %147 = getelementptr inbounds %struct.onas_context, ptr %146, i32 0, i32 4
  store i32 1, ptr %147, align 1
  br label %211

148:                                              ; preds = %135
  %149 = load ptr, ptr %3, align 8
  %150 = load ptr, ptr %149, align 8
  %151 = getelementptr inbounds %struct.onas_context, ptr %150, i32 0, i32 1
  %152 = load ptr, ptr %151, align 1
  %153 = call ptr @optget(ptr noundef %152, ptr noundef @.str.10)
  store ptr %153, ptr %4, align 8
  %154 = getelementptr inbounds %struct.optstruct, ptr %153, i32 0, i32 4
  %155 = load i32, ptr %154, align 8
  %156 = icmp ne i32 %155, 0
  br i1 %156, label %157, label %208

157:                                              ; preds = %148
  br label %158

158:                                              ; preds = %203, %168, %157
  %159 = load ptr, ptr %4, align 8
  %160 = icmp ne ptr %159, null
  br i1 %160, label %161, label %207

161:                                              ; preds = %158
  %162 = load ptr, ptr %7, align 8
  %163 = load ptr, ptr %4, align 8
  %164 = getelementptr inbounds %struct.optstruct, ptr %163, i32 0, i32 2
  %165 = load ptr, ptr %164, align 8
  %166 = call i32 @strcmp(ptr noundef %162, ptr noundef %165) #9
  %167 = icmp eq i32 0, %166
  br i1 %167, label %168, label %178

168:                                              ; preds = %161
  %169 = load ptr, ptr %4, align 8
  %170 = getelementptr inbounds %struct.optstruct, ptr %169, i32 0, i32 2
  %171 = load ptr, ptr %170, align 8
  %172 = call i32 (i32, ptr, ...) @logg(i32 noundef 5, ptr noundef @.str.11, ptr noundef %171)
  %173 = call i32 (i32, ptr, ...) @logg(i32 noundef 5, ptr noundef @.str.12)
  %174 = call i32 (i32, ptr, ...) @logg(i32 noundef 5, ptr noundef @.str.13)
  %175 = load ptr, ptr %4, align 8
  %176 = getelementptr inbounds %struct.optstruct, ptr %175, i32 0, i32 8
  %177 = load ptr, ptr %176, align 8
  store ptr %177, ptr %4, align 8
  br label %158

178:                                              ; preds = %161
  %179 = load i32, ptr @onas_fan_fd, align 4
  %180 = load ptr, ptr %3, align 8
  %181 = load ptr, ptr %180, align 8
  %182 = getelementptr inbounds %struct.onas_context, ptr %181, i32 0, i32 6
  %183 = load i64, ptr %182, align 1
  %184 = load ptr, ptr %3, align 8
  %185 = load ptr, ptr %184, align 8
  %186 = getelementptr inbounds %struct.onas_context, ptr %185, i32 0, i32 5
  %187 = load i32, ptr %186, align 1
  %188 = load ptr, ptr %4, align 8
  %189 = getelementptr inbounds %struct.optstruct, ptr %188, i32 0, i32 2
  %190 = load ptr, ptr %189, align 8
  %191 = call i32 @fanotify_mark(i32 noundef %179, i32 noundef 1, i64 noundef %183, i32 noundef %187, ptr noundef %190) #8
  %192 = icmp ne i32 %191, 0
  br i1 %192, label %193, label %198

193:                                              ; preds = %178
  %194 = load ptr, ptr %4, align 8
  %195 = getelementptr inbounds %struct.optstruct, ptr %194, i32 0, i32 2
  %196 = load ptr, ptr %195, align 8
  %197 = call i32 (i32, ptr, ...) @logg(i32 noundef 5, ptr noundef @.str.14, ptr noundef %196)
  store i32 3, ptr %2, align 4
  br label %237

198:                                              ; preds = %178
  %199 = load ptr, ptr %4, align 8
  %200 = getelementptr inbounds %struct.optstruct, ptr %199, i32 0, i32 2
  %201 = load ptr, ptr %200, align 8
  %202 = call i32 (i32, ptr, ...) @logg(i32 noundef 2, ptr noundef @.str.15, ptr noundef %201)
  br label %203

203:                                              ; preds = %198
  %204 = load ptr, ptr %4, align 8
  %205 = getelementptr inbounds %struct.optstruct, ptr %204, i32 0, i32 8
  %206 = load ptr, ptr %205, align 8
  store ptr %206, ptr %4, align 8
  br label %158

207:                                              ; preds = %158
  br label %210

208:                                              ; preds = %148
  %209 = call i32 (i32, ptr, ...) @logg(i32 noundef 5, ptr noundef @.str.16)
  store i32 3, ptr %2, align 4
  br label %237

210:                                              ; preds = %207
  br label %211

211:                                              ; preds = %210, %144
  br label %212

212:                                              ; preds = %211, %134
  %213 = load ptr, ptr %3, align 8
  %214 = load ptr, ptr %213, align 8
  %215 = getelementptr inbounds %struct.onas_context, ptr %214, i32 0, i32 1
  %216 = load ptr, ptr %215, align 1
  %217 = call ptr @optget(ptr noundef %216, ptr noundef @.str.17)
  %218 = getelementptr inbounds %struct.optstruct, ptr %217, i32 0, i32 3
  %219 = load i64, ptr %218, align 8
  %220 = load ptr, ptr %3, align 8
  %221 = load ptr, ptr %220, align 8
  %222 = getelementptr inbounds %struct.onas_context, ptr %221, i32 0, i32 10
  store i64 %219, ptr %222, align 1
  %223 = load ptr, ptr %3, align 8
  %224 = load ptr, ptr %223, align 8
  %225 = getelementptr inbounds %struct.onas_context, ptr %224, i32 0, i32 10
  %226 = load i64, ptr %225, align 1
  %227 = icmp ne i64 %226, 0
  br i1 %227, label %228, label %234

228:                                              ; preds = %212
  %229 = load ptr, ptr %3, align 8
  %230 = load ptr, ptr %229, align 8
  %231 = getelementptr inbounds %struct.onas_context, ptr %230, i32 0, i32 10
  %232 = load i64, ptr %231, align 1
  %233 = call i32 (i32, ptr, ...) @logg(i32 noundef 2, ptr noundef @.str.18, i64 noundef %232)
  br label %236

234:                                              ; preds = %212
  %235 = call i32 (i32, ptr, ...) @logg(i32 noundef 2, ptr noundef @.str.19)
  br label %236

236:                                              ; preds = %234, %228
  store i32 0, ptr %2, align 4
  br label %237

237:                                              ; preds = %236, %208, %193, %120, %14
  %238 = load i32, ptr %2, align 4
  ret i32 %238
}