; Function Attrs: nounwind uwtable
define dso_local noundef i32 @onas_setup_fanotif(ptr noundef readonly %0) local_unnamed_addr #0 {
  store i64 0, ptr @ddd_pid, align 8
  %.not = icmp eq ptr %0, null
  br i1 %.not, label %4, label %2

2:                                                ; preds = %1
  %3 = load ptr, ptr %0, align 8
  %.not45 = icmp eq ptr %3, null
  br i1 %.not45, label %4, label %6

4:                                                ; preds = %2, %1
  %5 = tail call i32 (i32, ptr, ...) @logg(i32 noundef 5, ptr noundef nonnull @.str) #12
  br label %132

6:                                                ; preds = %2
  %7 = getelementptr inbounds i8, ptr %3, i64 28
  %8 = load i32, ptr %7, align 1
  store i32 %8, ptr @onas_fan_fd, align 4
  %9 = getelementptr inbounds i8, ptr %3, i64 32
  store i64 134217728, ptr %9, align 1
  %10 = load ptr, ptr %0, align 8
  %11 = getelementptr inbounds i8, ptr %10, i64 8
  %12 = load ptr, ptr %11, align 1
  %13 = tail call ptr @optget(ptr noundef %12, ptr noundef nonnull @.str.1) #12
  %14 = getelementptr inbounds i8, ptr %13, i64 32
  %15 = load i32, ptr %14, align 8
  %.not46 = icmp eq i32 %15, 0
  br i1 %.not46, label %23, label %16

16:                                               ; preds = %6
  %17 = load ptr, ptr %0, align 8
  %18 = getelementptr inbounds i8, ptr %17, i64 8
  %19 = load ptr, ptr %18, align 1
  %20 = tail call ptr @optget(ptr noundef %19, ptr noundef nonnull @.str.2) #12
  %21 = getelementptr inbounds i8, ptr %20, i64 32
  %22 = load i32, ptr %21, align 8
  %.not47 = icmp eq i32 %22, 0
  br i1 %.not47, label %.sink.split, label %23

23:                                               ; preds = %16, %6
  %24 = tail call i32 (i32, ptr, ...) @logg(i32 noundef 2, ptr noundef nonnull @.str.4) #12
  %25 = load ptr, ptr %0, align 8
  %26 = getelementptr inbounds i8, ptr %25, i64 8
  %27 = load ptr, ptr %26, align 1
  %28 = tail call ptr @optget(ptr noundef %27, ptr noundef nonnull @.str.1) #12
  %29 = getelementptr inbounds i8, ptr %28, i64 32
  %30 = load i32, ptr %29, align 8
  %.not48 = icmp eq i32 %30, 0
  br i1 %.not48, label %39, label %31

31:                                               ; preds = %23
  %32 = load ptr, ptr %0, align 8
  %33 = getelementptr inbounds i8, ptr %32, i64 8
  %34 = load ptr, ptr %33, align 1
  %35 = tail call ptr @optget(ptr noundef %34, ptr noundef nonnull @.str.2) #12
  %36 = getelementptr inbounds i8, ptr %35, i64 32
  %37 = load i32, ptr %36, align 8
  %.not49 = icmp eq i32 %37, 0
  br i1 %.not49, label %39, label %.sink.split

.sink.split:                                      ; preds = %31, %16
  %.str.5.sink = phi ptr [ @.str.3, %16 ], [ @.str.5, %31 ]
  %.sink77.ph = phi i64 [ 196608, %16 ], [ 33, %31 ]
  %38 = tail call i32 (i32, ptr, ...) @logg(i32 noundef 2, ptr noundef nonnull %.str.5.sink) #12
  br label %39

39:                                               ; preds = %.sink.split, %23, %31
  %.sink77 = phi i64 [ 33, %31 ], [ 33, %23 ], [ %.sink77.ph, %.sink.split ]
  %40 = load ptr, ptr %0, align 8
  %41 = getelementptr inbounds i8, ptr %40, i64 32
  %42 = load i64, ptr %41, align 1
  %43 = or i64 %42, %.sink77
  store i64 %43, ptr %41, align 1
  %44 = load ptr, ptr %0, align 8
  %45 = getelementptr inbounds i8, ptr %44, i64 8
  %46 = load ptr, ptr %45, align 1
  %47 = tail call ptr @optget(ptr noundef %46, ptr noundef nonnull @.str.6) #12
  %48 = getelementptr inbounds i8, ptr %47, i64 32
  %49 = load i32, ptr %48, align 8
  %.not50 = icmp eq i32 %49, 0
  br i1 %.not50, label %53, label %50

50:                                               ; preds = %39
  %51 = getelementptr inbounds i8, ptr %47, i64 16
  %52 = load ptr, ptr %51, align 8
  br label %55

53:                                               ; preds = %39
  %54 = tail call ptr @cli_gettmpdir() #12
  br label %55

55:                                               ; preds = %53, %50
  %.0 = phi ptr [ %52, %50 ], [ %54, %53 ]
  %56 = load ptr, ptr %0, align 8
  %57 = getelementptr inbounds i8, ptr %56, i64 8
  %58 = load ptr, ptr %57, align 1
  %59 = tail call ptr @optget(ptr noundef %58, ptr noundef nonnull @.str.2) #12
  %60 = getelementptr inbounds i8, ptr %59, i64 32
  %61 = load i32, ptr %60, align 8
  %.not51 = icmp eq i32 %61, 0
  br i1 %.not51, label %78, label %.lr.ph

.lr.ph:                                           ; preds = %55, %74
  %.04163 = phi ptr [ %77, %74 ], [ %59, %55 ]
  %62 = load i32, ptr @onas_fan_fd, align 4
  %63 = load ptr, ptr %0, align 8
  %64 = getelementptr inbounds i8, ptr %63, i64 32
  %65 = load i64, ptr %64, align 1
  %66 = getelementptr inbounds i8, ptr %63, i64 28
  %67 = load i32, ptr %66, align 1
  %68 = getelementptr inbounds i8, ptr %.04163, i64 16
  %69 = load ptr, ptr %68, align 8
  %70 = tail call i32 @fanotify_mark(i32 noundef %62, i32 noundef 17, i64 noundef %65, i32 noundef %67, ptr noundef %69) #12
  %.not58 = icmp eq i32 %70, 0
  %71 = load ptr, ptr %68, align 8
  br i1 %.not58, label %74, label %72

72:                                               ; preds = %.lr.ph
  %73 = tail call i32 (i32, ptr, ...) @logg(i32 noundef 5, ptr noundef nonnull @.str.7, ptr noundef %71) #12
  br label %132

74:                                               ; preds = %.lr.ph
  %75 = tail call i32 (i32, ptr, ...) @logg(i32 noundef 2, ptr noundef nonnull @.str.8, ptr noundef %71) #12
  %76 = getelementptr inbounds i8, ptr %.04163, i64 48
  %77 = load ptr, ptr %76, align 8
  %.not56 = icmp eq ptr %77, null
  br i1 %.not56, label %.loopexit, label %.lr.ph

78:                                               ; preds = %55
  %79 = load ptr, ptr %0, align 8
  %80 = getelementptr inbounds i8, ptr %79, i64 8
  %81 = load ptr, ptr %80, align 1
  %82 = tail call ptr @optget(ptr noundef %81, ptr noundef nonnull @.str.9) #12
  %83 = getelementptr inbounds i8, ptr %82, i64 32
  %84 = load i32, ptr %83, align 8
  %.not52 = icmp eq i32 %84, 0
  %85 = load ptr, ptr %0, align 8
  br i1 %.not52, label %86, label %88

86:                                               ; preds = %78
  %87 = getelementptr inbounds i8, ptr %85, i64 24
  store i32 1, ptr %87, align 1
  br label %.loopexit

88:                                               ; preds = %78
  %89 = getelementptr inbounds i8, ptr %85, i64 8
  %90 = load ptr, ptr %89, align 1
  %91 = tail call ptr @optget(ptr noundef %90, ptr noundef nonnull @.str.10) #12
  %92 = getelementptr inbounds i8, ptr %91, i64 32
  %93 = load i32, ptr %92, align 8
  %.not53 = icmp eq i32 %93, 0
  br i1 %.not53, label %115, label %.lr.ph66

.lr.ph66:                                         ; preds = %88, %.backedge
  %.165 = phi ptr [ %.1.be, %.backedge ], [ %91, %88 ]
  %94 = getelementptr inbounds i8, ptr %.165, i64 16
  %95 = load ptr, ptr %94, align 8
  %96 = tail call i32 @strcmp(ptr noundef nonnull dereferenceable(1) %.0, ptr noundef nonnull dereferenceable(1) %95) #13
  %97 = icmp eq i32 %96, 0
  br i1 %97, label %98, label %102

98:                                               ; preds = %.lr.ph66
  %99 = tail call i32 (i32, ptr, ...) @logg(i32 noundef 5, ptr noundef nonnull @.str.11, ptr noundef %95) #12
  %100 = tail call i32 (i32, ptr, ...) @logg(i32 noundef 5, ptr noundef nonnull @.str.12) #12
  %101 = tail call i32 (i32, ptr, ...) @logg(i32 noundef 5, ptr noundef nonnull @.str.13) #12
  br label %.backedge

.backedge:                                        ; preds = %98, %113
  %.1.be.in = getelementptr inbounds i8, ptr %.165, i64 48
  %.1.be = load ptr, ptr %.1.be.in, align 8
  %.not54 = icmp eq ptr %.1.be, null
  br i1 %.not54, label %.loopexit, label %.lr.ph66

102:                                              ; preds = %.lr.ph66
  %103 = load i32, ptr @onas_fan_fd, align 4
  %104 = load ptr, ptr %0, align 8
  %105 = getelementptr inbounds i8, ptr %104, i64 32
  %106 = load i64, ptr %105, align 1
  %107 = getelementptr inbounds i8, ptr %104, i64 28
  %108 = load i32, ptr %107, align 1
  %109 = tail call i32 @fanotify_mark(i32 noundef %103, i32 noundef 1, i64 noundef %106, i32 noundef %108, ptr noundef %95) #12
  %.not55 = icmp eq i32 %109, 0
  %110 = load ptr, ptr %94, align 8
  br i1 %.not55, label %113, label %111

111:                                              ; preds = %102
  %112 = tail call i32 (i32, ptr, ...) @logg(i32 noundef 5, ptr noundef nonnull @.str.14, ptr noundef %110) #12
  br label %132

113:                                              ; preds = %102
  %114 = tail call i32 (i32, ptr, ...) @logg(i32 noundef 2, ptr noundef nonnull @.str.15, ptr noundef %110) #12
  br label %.backedge

115:                                              ; preds = %88
  %116 = tail call i32 (i32, ptr, ...) @logg(i32 noundef 5, ptr noundef nonnull @.str.16) #12
  br label %132

.loopexit:                                        ; preds = %74, %.backedge, %86
  %117 = load ptr, ptr %0, align 8
  %118 = getelementptr inbounds i8, ptr %117, i64 8
  %119 = load ptr, ptr %118, align 1
  %120 = tail call ptr @optget(ptr noundef %119, ptr noundef nonnull @.str.17) #12
  %121 = getelementptr inbounds i8, ptr %120, i64 24
  %122 = load i64, ptr %121, align 8
  %123 = load ptr, ptr %0, align 8
  %124 = getelementptr inbounds i8, ptr %123, i64 43
  store i64 %122, ptr %124, align 1
  %125 = load ptr, ptr %0, align 8
  %126 = getelementptr inbounds i8, ptr %125, i64 43
  %127 = load i64, ptr %126, align 1
  %.not57 = icmp eq i64 %127, 0
  br i1 %.not57, label %130, label %128

128:                                              ; preds = %.loopexit
  %129 = tail call i32 (i32, ptr, ...) @logg(i32 noundef 2, ptr noundef nonnull @.str.18, i64 noundef %127) #12
  br label %132

130:                                              ; preds = %.loopexit
  %131 = tail call i32 (i32, ptr, ...) @logg(i32 noundef 2, ptr noundef nonnull @.str.19) #12
  br label %132

132:                                              ; preds = %128, %130, %115, %111, %72, %4
  %.040 = phi i32 [ 3, %72 ], [ 3, %111 ], [ 3, %115 ], [ 3, %4 ], [ 0, %130 ], [ 0, %128 ]
  ret i32 %.040
}